Archive member included to satisfy reference by file (symbol)

C:/devkitPro/devkitARM/bin/../lib/gcc/arm-none-eabi/13.1.0/../../../../arm-none-eabi/lib/armv6k/fpu\libg.a(libc_a-memmove.o)
                              ipc.o (memmove)
C:/devkitPro/devkitARM/bin/../lib/gcc/arm-none-eabi/13.1.0/../../../../arm-none-eabi/lib/armv6k/fpu\libg.a(libc_a-memset.o)
                              main.o (memset)
C:/devkitPro/devkitARM/bin/../lib/gcc/arm-none-eabi/13.1.0/../../../../arm-none-eabi/lib/armv6k/fpu\libg.a(libc_a-strlen.o)
                              ControlService.o (strlen)
C:/devkitPro/devkitARM/bin/../lib/gcc/arm-none-eabi/13.1.0/../../../../arm-none-eabi/lib/armv6k/fpu\libg.a(libc_a-strncmp.o)
                              ipc.o (strncmp)
C:/devkitPro/devkitARM/bin/../lib/gcc/arm-none-eabi/13.1.0/../../../../arm-none-eabi/lib/armv6k/fpu\libg.a(libc_a-strncpy.o)
                              ipc.o (strncpy)
C:/devkitPro/devkitARM/bin/../lib/gcc/arm-none-eabi/13.1.0/../../../../arm-none-eabi/lib/armv6k/fpu\libg.a(libc_a-strcmp.o)
                              fatalExceptionHandlersMain.o (strcmp)
C:/devkitPro/devkitARM/bin/../lib/gcc/arm-none-eabi/13.1.0/../../../../arm-none-eabi/lib/armv6k/fpu\libg.a(libc_a-memcpy-stub.o)
                              fatalExceptionHandlersMain.o (memcpy)
C:/devkitPro/devkitARM/bin/../lib/gcc/arm-none-eabi/13.1.0/../../../../arm-none-eabi/lib/armv6k/fpu\libg.a(libc_a-init.o)
                              start.o (__libc_init_array)

Discarded input sections

 .text          0x00000000        0x0 C:/devkitPro/devkitARM/bin/../lib/gcc/arm-none-eabi/13.1.0/armv6k/fpu/crti.o
 .data          0x00000000        0x0 C:/devkitPro/devkitARM/bin/../lib/gcc/arm-none-eabi/13.1.0/armv6k/fpu/crti.o
 .bss           0x00000000        0x0 C:/devkitPro/devkitARM/bin/../lib/gcc/arm-none-eabi/13.1.0/armv6k/fpu/crti.o
 .text          0x00000000        0x0 C:/devkitPro/devkitARM/bin/../lib/gcc/arm-none-eabi/13.1.0/armv6k/fpu/crtbegin.o
 .data          0x00000000        0x0 C:/devkitPro/devkitARM/bin/../lib/gcc/arm-none-eabi/13.1.0/armv6k/fpu/crtbegin.o
 .bss           0x00000000        0x0 C:/devkitPro/devkitARM/bin/../lib/gcc/arm-none-eabi/13.1.0/armv6k/fpu/crtbegin.o
 .rodata.all_implied_fbits
                0x00000000       0x24 C:/devkitPro/devkitARM/bin/../lib/gcc/arm-none-eabi/13.1.0/armv6k/fpu/crtbegin.o
 .data.__dso_handle
                0x00000000        0x4 C:/devkitPro/devkitARM/bin/../lib/gcc/arm-none-eabi/13.1.0/armv6k/fpu/crtbegin.o
 .comment       0x00000000       0x24 C:/devkitPro/devkitARM/bin/../lib/gcc/arm-none-eabi/13.1.0/armv6k/fpu/crtbegin.o
 .text          0x00000000        0x0 debug.o
 .data          0x00000000        0x0 debug.o
 .bss           0x00000000        0x0 debug.o
 .comment       0x00000000       0x24 debug.o
 .text          0x00000000        0x0 fatalExceptionHandlersMain.o
 .data          0x00000000        0x0 fatalExceptionHandlersMain.o
 .bss           0x00000000        0x0 fatalExceptionHandlersMain.o
 .comment       0x00000000       0x24 fatalExceptionHandlersMain.o
 .text          0x00000000        0x0 globals.o
 .data          0x00000000        0x0 globals.o
 .bss           0x00000000        0x0 globals.o
 .comment       0x00000000       0x24 globals.o
 .text          0x00000000        0x0 ipc.o
 .data          0x00000000        0x0 ipc.o
 .bss           0x00000000        0x0 ipc.o
 .text.SessionInfo_ChangeVtable
                0x00000000       0x80 ipc.o
 .comment       0x00000000       0x24 ipc.o
 .text          0x00000000        0x0 main.o
 .data          0x00000000        0x0 main.o
 .bss           0x00000000        0x0 main.o
 .comment       0x00000000       0x24 main.o
 .text          0x00000000        0x0 svc.o
 .data          0x00000000        0x0 svc.o
 .bss           0x00000000        0x0 svc.o
 .comment       0x00000000       0x24 svc.o
 .text          0x00000000        0x0 synchronization.o
 .data          0x00000000        0x0 synchronization.o
 .bss           0x00000000        0x0 synchronization.o
 .text.KScheduler__TriggerCrossCoreInterrupt
                0x00000000       0x68 synchronization.o
 .comment       0x00000000       0x24 synchronization.o
 .text          0x00000000        0x0 ConnectToPort.o
 .data          0x00000000        0x0 ConnectToPort.o
 .bss           0x00000000        0x0 ConnectToPort.o
 .comment       0x00000000       0x24 ConnectToPort.o
 .text          0x00000000        0x0 ControlMemory.o
 .data          0x00000000        0x0 ControlMemory.o
 .bss           0x00000000        0x0 ControlMemory.o
 .comment       0x00000000       0x24 ControlMemory.o
 .text          0x00000000        0x0 ControlService.o
 .data          0x00000000        0x0 ControlService.o
 .bss           0x00000000        0x0 ControlService.o
 .comment       0x00000000       0x24 ControlService.o
 .text          0x00000000        0x0 CopyHandle.o
 .data          0x00000000        0x0 CopyHandle.o
 .bss           0x00000000        0x0 CopyHandle.o
 .comment       0x00000000       0x24 CopyHandle.o
 .text          0x00000000        0x0 CreateThread.o
 .data          0x00000000        0x0 CreateThread.o
 .bss           0x00000000        0x0 CreateThread.o
 .comment       0x00000000       0x24 CreateThread.o
 .text          0x00000000        0x0 GetHandleInfo.o
 .data          0x00000000        0x0 GetHandleInfo.o
 .bss           0x00000000        0x0 GetHandleInfo.o
 .comment       0x00000000       0x24 GetHandleInfo.o
 .text          0x00000000        0x0 GetProcessInfo.o
 .data          0x00000000        0x0 GetProcessInfo.o
 .bss           0x00000000        0x0 GetProcessInfo.o
 .comment       0x00000000       0x24 GetProcessInfo.o
 .text          0x00000000        0x0 GetSystemInfo.o
 .data          0x00000000        0x0 GetSystemInfo.o
 .bss           0x00000000        0x0 GetSystemInfo.o
 .comment       0x00000000       0x24 GetSystemInfo.o
 .text          0x00000000        0x0 GetThreadInfo.o
 .data          0x00000000        0x0 GetThreadInfo.o
 .bss           0x00000000        0x0 GetThreadInfo.o
 .comment       0x00000000       0x24 GetThreadInfo.o
 .text          0x00000000        0x0 KernelSetState.o
 .data          0x00000000        0x0 KernelSetState.o
 .bss           0x00000000        0x0 KernelSetState.o
 .comment       0x00000000       0x24 KernelSetState.o
 .text          0x00000000        0x0 MapProcessMemoryEx.o
 .data          0x00000000        0x0 MapProcessMemoryEx.o
 .bss           0x00000000        0x0 MapProcessMemoryEx.o
 .comment       0x00000000       0x24 MapProcessMemoryEx.o
 .text          0x00000000        0x0 SendSyncRequest.o
 .data          0x00000000        0x0 SendSyncRequest.o
 .bss           0x00000000        0x0 SendSyncRequest.o
 .comment       0x00000000       0x24 SendSyncRequest.o
 .text          0x00000000        0x0 SetGpuProt.o
 .data          0x00000000        0x0 SetGpuProt.o
 .bss           0x00000000        0x0 SetGpuProt.o
 .comment       0x00000000       0x24 SetGpuProt.o
 .text          0x00000000        0x0 SetWifiEnabled.o
 .data          0x00000000        0x0 SetWifiEnabled.o
 .bss           0x00000000        0x0 SetWifiEnabled.o
 .comment       0x00000000       0x24 SetWifiEnabled.o
 .text          0x00000000        0x0 TranslateHandle.o
 .data          0x00000000        0x0 TranslateHandle.o
 .bss           0x00000000        0x0 TranslateHandle.o
 .comment       0x00000000       0x24 TranslateHandle.o
 .text          0x00000000        0x0 UnmapProcessMemoryEx.o
 .data          0x00000000        0x0 UnmapProcessMemoryEx.o
 .bss           0x00000000        0x0 UnmapProcessMemoryEx.o
 .comment       0x00000000       0x24 UnmapProcessMemoryEx.o
 .data          0x00000000        0x0 fatalExceptionHandlers.o
 .text          0x00000000        0x0 start.o
 .data          0x00000000        0x0 start.o
 .bss           0x00000000        0x0 start.o
 .data          0x00000000        0x0 svcHandler.o
 .bss           0x00000000        0x0 svcHandler.o
 .data          0x00000000        0x0 utils.o
 .bss           0x00000000        0x0 utils.o
 .data          0x00000000        0x0 Backdoor.o
 .bss           0x00000000        0x0 Backdoor.o
 .data          0x00000000        0x0 Break.o
 .bss           0x00000000        0x0 Break.o
 .data          0x00000000        0x0 CustomBackdoor.o
 .bss           0x00000000        0x0 CustomBackdoor.o
 .data          0x00000000        0x0 wrappers.o
 .bss           0x00000000        0x0 wrappers.o
 .text          0x00000000        0x0 C:/devkitPro/devkitARM/bin/../lib/gcc/arm-none-eabi/13.1.0/../../../../arm-none-eabi/lib/armv6k/fpu\libg.a(libc_a-memmove.o)
 .data          0x00000000        0x0 C:/devkitPro/devkitARM/bin/../lib/gcc/arm-none-eabi/13.1.0/../../../../arm-none-eabi/lib/armv6k/fpu\libg.a(libc_a-memmove.o)
 .bss           0x00000000        0x0 C:/devkitPro/devkitARM/bin/../lib/gcc/arm-none-eabi/13.1.0/../../../../arm-none-eabi/lib/armv6k/fpu\libg.a(libc_a-memmove.o)
 .comment       0x00000000       0x24 C:/devkitPro/devkitARM/bin/../lib/gcc/arm-none-eabi/13.1.0/../../../../arm-none-eabi/lib/armv6k/fpu\libg.a(libc_a-memmove.o)
 .text          0x00000000        0x0 C:/devkitPro/devkitARM/bin/../lib/gcc/arm-none-eabi/13.1.0/../../../../arm-none-eabi/lib/armv6k/fpu\libg.a(libc_a-memset.o)
 .data          0x00000000        0x0 C:/devkitPro/devkitARM/bin/../lib/gcc/arm-none-eabi/13.1.0/../../../../arm-none-eabi/lib/armv6k/fpu\libg.a(libc_a-memset.o)
 .bss           0x00000000        0x0 C:/devkitPro/devkitARM/bin/../lib/gcc/arm-none-eabi/13.1.0/../../../../arm-none-eabi/lib/armv6k/fpu\libg.a(libc_a-memset.o)
 .comment       0x00000000       0x24 C:/devkitPro/devkitARM/bin/../lib/gcc/arm-none-eabi/13.1.0/../../../../arm-none-eabi/lib/armv6k/fpu\libg.a(libc_a-memset.o)
 .text          0x00000000        0x0 C:/devkitPro/devkitARM/bin/../lib/gcc/arm-none-eabi/13.1.0/../../../../arm-none-eabi/lib/armv6k/fpu\libg.a(libc_a-strlen.o)
 .data          0x00000000        0x0 C:/devkitPro/devkitARM/bin/../lib/gcc/arm-none-eabi/13.1.0/../../../../arm-none-eabi/lib/armv6k/fpu\libg.a(libc_a-strlen.o)
 .bss           0x00000000        0x0 C:/devkitPro/devkitARM/bin/../lib/gcc/arm-none-eabi/13.1.0/../../../../arm-none-eabi/lib/armv6k/fpu\libg.a(libc_a-strlen.o)
 .comment       0x00000000       0x24 C:/devkitPro/devkitARM/bin/../lib/gcc/arm-none-eabi/13.1.0/../../../../arm-none-eabi/lib/armv6k/fpu\libg.a(libc_a-strlen.o)
 .text          0x00000000        0x0 C:/devkitPro/devkitARM/bin/../lib/gcc/arm-none-eabi/13.1.0/../../../../arm-none-eabi/lib/armv6k/fpu\libg.a(libc_a-strncmp.o)
 .data          0x00000000        0x0 C:/devkitPro/devkitARM/bin/../lib/gcc/arm-none-eabi/13.1.0/../../../../arm-none-eabi/lib/armv6k/fpu\libg.a(libc_a-strncmp.o)
 .bss           0x00000000        0x0 C:/devkitPro/devkitARM/bin/../lib/gcc/arm-none-eabi/13.1.0/../../../../arm-none-eabi/lib/armv6k/fpu\libg.a(libc_a-strncmp.o)
 .comment       0x00000000       0x24 C:/devkitPro/devkitARM/bin/../lib/gcc/arm-none-eabi/13.1.0/../../../../arm-none-eabi/lib/armv6k/fpu\libg.a(libc_a-strncmp.o)
 .text          0x00000000        0x0 C:/devkitPro/devkitARM/bin/../lib/gcc/arm-none-eabi/13.1.0/../../../../arm-none-eabi/lib/armv6k/fpu\libg.a(libc_a-strncpy.o)
 .data          0x00000000        0x0 C:/devkitPro/devkitARM/bin/../lib/gcc/arm-none-eabi/13.1.0/../../../../arm-none-eabi/lib/armv6k/fpu\libg.a(libc_a-strncpy.o)
 .bss           0x00000000        0x0 C:/devkitPro/devkitARM/bin/../lib/gcc/arm-none-eabi/13.1.0/../../../../arm-none-eabi/lib/armv6k/fpu\libg.a(libc_a-strncpy.o)
 .comment       0x00000000       0x24 C:/devkitPro/devkitARM/bin/../lib/gcc/arm-none-eabi/13.1.0/../../../../arm-none-eabi/lib/armv6k/fpu\libg.a(libc_a-strncpy.o)
 .data          0x00000000        0x0 C:/devkitPro/devkitARM/bin/../lib/gcc/arm-none-eabi/13.1.0/../../../../arm-none-eabi/lib/armv6k/fpu\libg.a(libc_a-strcmp.o)
 .bss           0x00000000        0x0 C:/devkitPro/devkitARM/bin/../lib/gcc/arm-none-eabi/13.1.0/../../../../arm-none-eabi/lib/armv6k/fpu\libg.a(libc_a-strcmp.o)
 .text          0x00000000        0x0 C:/devkitPro/devkitARM/bin/../lib/gcc/arm-none-eabi/13.1.0/../../../../arm-none-eabi/lib/armv6k/fpu\libg.a(libc_a-memcpy-stub.o)
 .data          0x00000000        0x0 C:/devkitPro/devkitARM/bin/../lib/gcc/arm-none-eabi/13.1.0/../../../../arm-none-eabi/lib/armv6k/fpu\libg.a(libc_a-memcpy-stub.o)
 .bss           0x00000000        0x0 C:/devkitPro/devkitARM/bin/../lib/gcc/arm-none-eabi/13.1.0/../../../../arm-none-eabi/lib/armv6k/fpu\libg.a(libc_a-memcpy-stub.o)
 .comment       0x00000000       0x24 C:/devkitPro/devkitARM/bin/../lib/gcc/arm-none-eabi/13.1.0/../../../../arm-none-eabi/lib/armv6k/fpu\libg.a(libc_a-memcpy-stub.o)
 .text          0x00000000        0x0 C:/devkitPro/devkitARM/bin/../lib/gcc/arm-none-eabi/13.1.0/../../../../arm-none-eabi/lib/armv6k/fpu\libg.a(libc_a-init.o)
 .data          0x00000000        0x0 C:/devkitPro/devkitARM/bin/../lib/gcc/arm-none-eabi/13.1.0/../../../../arm-none-eabi/lib/armv6k/fpu\libg.a(libc_a-init.o)
 .bss           0x00000000        0x0 C:/devkitPro/devkitARM/bin/../lib/gcc/arm-none-eabi/13.1.0/../../../../arm-none-eabi/lib/armv6k/fpu\libg.a(libc_a-init.o)
 .comment       0x00000000       0x24 C:/devkitPro/devkitARM/bin/../lib/gcc/arm-none-eabi/13.1.0/../../../../arm-none-eabi/lib/armv6k/fpu\libg.a(libc_a-init.o)
 .text          0x00000000        0x0 C:/devkitPro/devkitARM/bin/../lib/gcc/arm-none-eabi/13.1.0/armv6k/fpu/crtend.o
 .data          0x00000000        0x0 C:/devkitPro/devkitARM/bin/../lib/gcc/arm-none-eabi/13.1.0/armv6k/fpu/crtend.o
 .bss           0x00000000        0x0 C:/devkitPro/devkitARM/bin/../lib/gcc/arm-none-eabi/13.1.0/armv6k/fpu/crtend.o
 .rodata.all_implied_fbits
                0x00000000       0x24 C:/devkitPro/devkitARM/bin/../lib/gcc/arm-none-eabi/13.1.0/armv6k/fpu/crtend.o
 .eh_frame      0x00000000        0x4 C:/devkitPro/devkitARM/bin/../lib/gcc/arm-none-eabi/13.1.0/armv6k/fpu/crtend.o
 .comment       0x00000000       0x24 C:/devkitPro/devkitARM/bin/../lib/gcc/arm-none-eabi/13.1.0/armv6k/fpu/crtend.o
 .ARM.attributes
                0x00000000       0x30 C:/devkitPro/devkitARM/bin/../lib/gcc/arm-none-eabi/13.1.0/armv6k/fpu/crtend.o
 .text          0x00000000        0x0 C:/devkitPro/devkitARM/bin/../lib/gcc/arm-none-eabi/13.1.0/armv6k/fpu/crtn.o
 .data          0x00000000        0x0 C:/devkitPro/devkitARM/bin/../lib/gcc/arm-none-eabi/13.1.0/armv6k/fpu/crtn.o
 .bss           0x00000000        0x0 C:/devkitPro/devkitARM/bin/../lib/gcc/arm-none-eabi/13.1.0/armv6k/fpu/crtn.o

Memory Configuration

Name             Origin             Length             Attributes
vram             0x18000000         0x00180000
main             0x70000000         0x00100000
*default*        0x00000000         0xffffffff

Linker script and memory map

                0x70000000                        PROVIDE (__start__ = ORIGIN (main))
                0x70000000                        . = ABSOLUTE (__start__)

.text           0x70000000     0x51c0 load address 0x18000000
 *(.text.start)
 .text.start    0x70000000       0x78 start.o
                0x70000000                _start
 *(.init)
 .init          0x70000078        0xc C:/devkitPro/devkitARM/bin/../lib/gcc/arm-none-eabi/13.1.0/armv6k/fpu/crti.o
                0x70000078                _init
 .init          0x70000084        0xc C:/devkitPro/devkitARM/bin/../lib/gcc/arm-none-eabi/13.1.0/armv6k/fpu/crtn.o
 *(.text)
 *fill*         0x70000090       0x10 
 .text          0x700000a0      0x32c fatalExceptionHandlers.o
                0x700001dc                FIQHandler
                0x70000220                undefinedInstructionHandler
                0x700002bc                prefetchAbortHandler
                0x7000032c                dataAbortHandler
 *fill*         0x700003cc       0x14 
 .text          0x700003e0      0x134 svcHandler.o
                0x700003e0                svcHandler
 .text          0x70000514       0xf4 utils.o
                0x70000514                convertVAToPA
                0x70000554                flushEntireDataCache
                0x70000564                invalidateEntireInstructionCache
                0x70000574                KObjectMutex__Acquire
                0x700005a0                KObjectMutex__Release
                0x700005c4                safecpy
 .text          0x70000608       0x28 Backdoor.o
                0x70000608                Backdoor
 .text          0x70000630       0x10 Break.o
                0x70000630                Break
 .text          0x70000640       0x1c CustomBackdoor.o
                0x70000640                CustomBackdoor
 .text          0x7000065c      0x104 wrappers.o
                0x7000065c                GetHandleInfoHookWrapper
                0x70000670                GetSystemInfoHookWrapper
                0x70000684                GetProcessInfoHookWrapper
                0x70000698                GetThreadInfoHookWrapper
                0x700006ac                ConnectToPortHookWrapper
                0x700006c0                CopyHandleWrapper
                0x700006d4                TranslateHandleWrapper
                0x700006e8                ControlMemoryHookWrapper
                0x70000708                ControlMemoryEx
                0x70000738                CreateThreadHookWrapper
 .text          0x70000760      0x390 C:/devkitPro/devkitARM/bin/../lib/gcc/arm-none-eabi/13.1.0/../../../../arm-none-eabi/lib/armv6k/fpu\libg.a(libc_a-strcmp.o)
                0x70000768                strcmp
 *(.text.*)
 .text.__do_global_dtors_aux
                0x70000af0       0x40 C:/devkitPro/devkitARM/bin/../lib/gcc/arm-none-eabi/13.1.0/armv6k/fpu/crtbegin.o
 .text.frame_dummy
                0x70000b30       0x2c C:/devkitPro/devkitARM/bin/../lib/gcc/arm-none-eabi/13.1.0/armv6k/fpu/crtbegin.o
 .text.enableMonitorModeDebugging
                0x70000b5c       0x38 debug.o
                0x70000b5c                enableMonitorModeDebugging
 .text.disableWatchpoint
                0x70000b94       0x74 debug.o
                0x70000b94                disableWatchpoint
 .text.setWatchpointWithContextId
                0x70000c08       0xe8 debug.o
                0x70000c08                setWatchpointWithContextId
 .text.isExceptionFatal
                0x70000cf0      0x154 fatalExceptionHandlersMain.o
                0x70000cf0                isExceptionFatal
 .text.isDataAbortExceptionRangeControlled
                0x70000e44       0x7c fatalExceptionHandlersMain.o
                0x70000e44                isDataAbortExceptionRangeControlled
 .text.fatalExceptionHandlersMain
                0x70000ec0      0x1a4 fatalExceptionHandlersMain.o
                0x70000ec0                fatalExceptionHandlersMain
 .text.SessionInfo_FindClosestSlot
                0x70001064       0x94 ipc.o
 .text.SessionInfo_Lookup
                0x700010f8       0xa4 ipc.o
                0x700010f8                SessionInfo_Lookup
 .text.SessionInfo_FindFirst
                0x7000119c       0xe4 ipc.o
                0x7000119c                SessionInfo_FindFirst
 .text.SessionInfo_Add
                0x70001280      0x1a8 ipc.o
                0x70001280                SessionInfo_Add
 .text.SessionInfo_Remove
                0x70001428       0xf0 ipc.o
                0x70001428                SessionInfo_Remove
 .text.KSession__dtor_hook
                0x70001518       0x24 ipc.o
 .text.doLangEmu
                0x7000153c      0x1ec ipc.o
                0x7000153c                doLangEmu
 .text.doErrfThrowHook
                0x70001728       0xa8 ipc.o
                0x70001728                doErrfThrowHook
 .text.relocateAndSetupMMU
                0x700017d0      0x150 main.o
                0x700017d0                relocateAndSetupMMU
 .text.bindSGI0Hook
                0x70001920       0x5c main.o
                0x70001920                bindSGI0Hook
 .text.configHook
                0x7000197c      0x134 main.o
                0x7000197c                configHook
 .text.startup.main
                0x70001ab0      0xc24 main.o
                0x70001ab0                main
 .text.BreakHook
                0x700026d4       0x34 svc.o
 .text.buildAlteredSvcTable
                0x70002708      0x16c svc.o
                0x70002708                buildAlteredSvcTable
 .text.signalSvcEntry
                0x70002874       0x5c svc.o
                0x70002874                signalSvcEntry
 .text.signalSvcReturn
                0x700028d0       0x5c svc.o
                0x700028d0                signalSvcReturn
 .text.postprocessSvc
                0x7000292c       0x68 svc.o
                0x7000292c                postprocessSvc
 .text.executeFunctionOnCores
                0x70002994       0x28 synchronization.o
                0x70002994                executeFunctionOnCores
 .text.KThread__DebugReschedule
                0x700029bc       0x70 synchronization.o
                0x700029bc                KThread__DebugReschedule
 .text.rosalinaRescheduleThread
                0x70002a2c       0x78 synchronization.o
                0x70002a2c                rosalinaRescheduleThread
 .text.rosalinaThreadLockPredicate
                0x70002aa4      0x100 synchronization.o
                0x70002aa4                rosalinaThreadLockPredicate
 .text.rosalinaLockThreads
                0x70002ba4      0x254 synchronization.o
                0x70002ba4                rosalinaLockThreads
 .text.rosalinaUnlockThreads
                0x70002df8       0x78 synchronization.o
                0x70002df8                rosalinaUnlockThreads
 .text.ConnectToPortHook
                0x70002e70      0x100 ConnectToPort.o
                0x70002e70                ConnectToPortHook
 .text.ControlMemoryHook
                0x70002f70       0x58 ControlMemory.o
                0x70002f70                ControlMemoryHook
 .text.ControlService
                0x70002fc8      0x2c0 ControlService.o
                0x70002fc8                ControlService
 .text.CopyHandle
                0x70003288      0x1c8 CopyHandle.o
                0x70003288                CopyHandle
 .text.CreateThreadHook
                0x70003450       0x8c CreateThread.o
                0x70003450                CreateThreadHook
 .text.GetHandleInfoHook
                0x700034dc      0x1a4 GetHandleInfo.o
                0x700034dc                GetHandleInfoHook
 .text.GetProcessInfoHook
                0x70003680      0x234 GetProcessInfo.o
                0x70003680                GetProcessInfoHook
 .text.GetSystemInfoHook
                0x700038b4      0x4f8 GetSystemInfo.o
                0x700038b4                GetSystemInfoHook
 .text.GetThreadInfoHook
                0x70003dac       0xa8 GetThreadInfo.o
                0x70003dac                GetThreadInfoHook
 .text.shouldSignalSyscallDebugEvent
                0x70003e54       0x90 KernelSetState.o
                0x70003e54                shouldSignalSyscallDebugEvent
 .text.SetSyscallDebugEventMask
                0x70003ee4      0x1f0 KernelSetState.o
                0x70003ee4                SetSyscallDebugEventMask
 .text.KernelSetStateHook
                0x700040d4      0x2b0 KernelSetState.o
                0x700040d4                KernelSetStateHook
 .text.MapProcessMemoryEx
                0x70004384       0xb8 MapProcessMemoryEx.o
                0x70004384                MapProcessMemoryEx
 .text.SendSyncRequestHook
                0x7000443c      0x584 SendSyncRequest.o
                0x7000443c                SendSyncRequestHook
 .text.SetGpuProt
                0x700049c0        0x8 SetGpuProt.o
                0x700049c0                SetGpuProt
 .text.SetWifiEnabled
                0x700049c8       0x24 SetWifiEnabled.o
                0x700049c8                SetWifiEnabled
 .text.TranslateHandle
                0x700049ec      0x134 TranslateHandle.o
                0x700049ec                TranslateHandle
 .text.UnmapProcessMemoryEx
                0x70004b20       0x6c UnmapProcessMemoryEx.o
                0x70004b20                UnmapProcessMemoryEx
 .text.memmove  0x70004b8c      0x150 C:/devkitPro/devkitARM/bin/../lib/gcc/arm-none-eabi/13.1.0/../../../../arm-none-eabi/lib/armv6k/fpu\libg.a(libc_a-memmove.o)
                0x70004b8c                memmove
 .text.memset   0x70004cdc       0xf4 C:/devkitPro/devkitARM/bin/../lib/gcc/arm-none-eabi/13.1.0/../../../../arm-none-eabi/lib/armv6k/fpu\libg.a(libc_a-memset.o)
                0x70004cdc                memset
 .text.strlen   0x70004dd0       0x90 C:/devkitPro/devkitARM/bin/../lib/gcc/arm-none-eabi/13.1.0/../../../../arm-none-eabi/lib/armv6k/fpu\libg.a(libc_a-strlen.o)
                0x70004dd0                strlen
 .text.strncmp  0x70004e60       0xe4 C:/devkitPro/devkitARM/bin/../lib/gcc/arm-none-eabi/13.1.0/../../../../arm-none-eabi/lib/armv6k/fpu\libg.a(libc_a-strncmp.o)
                0x70004e60                strncmp
 .text.strncpy  0x70004f44       0xc4 C:/devkitPro/devkitARM/bin/../lib/gcc/arm-none-eabi/13.1.0/../../../../arm-none-eabi/lib/armv6k/fpu\libg.a(libc_a-strncpy.o)
                0x70004f44                strncpy
 .text.memcpy   0x70005008      0x11c C:/devkitPro/devkitARM/bin/../lib/gcc/arm-none-eabi/13.1.0/../../../../arm-none-eabi/lib/armv6k/fpu\libg.a(libc_a-memcpy-stub.o)
                0x70005008                memcpy
 .text.__libc_init_array
                0x70005124       0x84 C:/devkitPro/devkitARM/bin/../lib/gcc/arm-none-eabi/13.1.0/../../../../arm-none-eabi/lib/armv6k/fpu\libg.a(libc_a-init.o)
                0x70005124                __libc_init_array
 *(.glue_7)
 .glue_7        0x700051a8        0x0 linker stubs
 *(.glue_7t)
 .glue_7t       0x700051a8        0x0 linker stubs
 *(.stub)
 *(.gnu.warning)
 *(.gnu.linkonce.t*)
 *(.fini)
 .fini          0x700051a8        0xc C:/devkitPro/devkitARM/bin/../lib/gcc/arm-none-eabi/13.1.0/armv6k/fpu/crti.o
                0x700051a8                _fini
 .fini          0x700051b4        0xc C:/devkitPro/devkitARM/bin/../lib/gcc/arm-none-eabi/13.1.0/armv6k/fpu/crtn.o
                0x700051c0                        . = ALIGN (0x20)

.vfp11_veneer   0x700051c0        0x0 load address 0x180051c0
 .vfp11_veneer  0x700051c0        0x0 linker stubs

.v4_bx          0x700051c0        0x0 load address 0x180051c0
 .v4_bx         0x700051c0        0x0 linker stubs

.iplt           0x700051c0        0x0 load address 0x180051c0
 .iplt          0x700051c0        0x0 C:/devkitPro/devkitARM/bin/../lib/gcc/arm-none-eabi/13.1.0/armv6k/fpu/crtbegin.o

.rodata         0x700051c0       0x88 load address 0x180051c0
 *(.rodata)
 *(.roda)
 *(.rodata.*)
 .rodata.isExceptionFatal.str1.4
                0x700051c0        0x5 fatalExceptionHandlersMain.o
 *fill*         0x700051c5        0x3 
 .rodata.doErrfThrowHook.str1.4
                0x700051c8        0x4 ipc.o
 .rodata.ControlService.str1.4
                0x700051cc       0x1f ControlService.o
 *fill*         0x700051eb        0x1 
 .rodata.GetHandleInfoHook.str1.4
                0x700051ec       0x11 GetHandleInfo.o
 *fill*         0x700051fd        0x3 
 .rodata.SendSyncRequestHook.str1.4
                0x70005200       0x37 SendSyncRequest.o
                                 0x47 (size before relaxing)
 *fill*         0x70005237        0x1 
 .rodata.TranslateHandle.str1.4
                0x70005238        0xc TranslateHandle.o
 .rodata.safecpy_sz
                0x70005244        0x4 utils.o
                0x70005244                safecpy_sz
 *all.rodata*(*)
 *(.gnu.linkonce.r*)
                0x70005248                        . = ALIGN (0x8)

.eh_frame       0x70005248        0x0 load address 0x18005248
 .eh_frame      0x70005248        0x0 C:/devkitPro/devkitARM/bin/../lib/gcc/arm-none-eabi/13.1.0/armv6k/fpu/crtbegin.o

.rel.dyn        0x70005248        0x0 load address 0x18005248
 .rel.iplt      0x70005248        0x0 C:/devkitPro/devkitARM/bin/../lib/gcc/arm-none-eabi/13.1.0/armv6k/fpu/crtbegin.o

.preinit_array  0x70005248        0x0 load address 0x18005248
                0x70005248                        PROVIDE (__preinit_array_start = .)
 *(.preinit_array)
                0x70005248                        PROVIDE (__preinit_array_end = .)

.init_array     0x70005248        0x4 load address 0x18005248
                0x70005248                        PROVIDE (__init_array_start = .)
 *(SORT_BY_NAME(.init_array.*))
 *(.init_array)
 .init_array    0x70005248        0x4 C:/devkitPro/devkitARM/bin/../lib/gcc/arm-none-eabi/13.1.0/armv6k/fpu/crtbegin.o
                0x7000524c                        PROVIDE (__init_array_end = .)

.fini_array     0x7000524c        0x4 load address 0x1800524c
                [!provide]                        PROVIDE (__fini_array_start = .)
 *(.fini_array)
 .fini_array    0x7000524c        0x4 C:/devkitPro/devkitARM/bin/../lib/gcc/arm-none-eabi/13.1.0/armv6k/fpu/crtbegin.o
 *(SORT_BY_NAME(.fini_array.*))
                [!provide]                        PROVIDE (__fini_array_end = .)

.ctors          0x70005250        0x0 load address 0x18005250
 *crtbegin.o(.ctors)
 *(EXCLUDE_FILE(*crtend.o) .ctors)
 *(SORT_BY_NAME(.ctors.*))
 *(.ctors)
                0x70005250                        . = ALIGN (0x4)

.dtors          0x70005250        0x0 load address 0x18005250
 *crtbegin.o(.dtors)
 *(EXCLUDE_FILE(*crtend.o) .dtors)
 *(SORT_BY_NAME(.dtors.*))
 *(.dtors)
                0x70005250                        . = ALIGN (0x4)

.ARM.extab      0x70005250        0x0 load address 0x18005250
 *(.ARM.extab* .gnu.linkonce.armextab.*)
                0x70005250                        __exidx_start = ABSOLUTE (.)

ARM.exidx       0x70005250        0x0 load address 0x18005250
 *(.ARM.exidx* .gnu.linkonce.armexidx.*)
                0x70005250                        __exidx_end = ABSOLUTE (.)

.data           0x70005250       0xd0 load address 0x18005250
 *(.data)
 *(.data.*)
 .data.kExtParameters
                0x70005250       0xb0 main.o
                0x70005250                kExtParameters
 .data.customInterruptEvent
                0x70005300        0x8 utils.o
                0x70005304                customInterruptEvent
 *(.gnu.linkonce.d*)
                0x70005320                        . = ALIGN (0x20)
 *fill*         0x70005308       0x18 

.igot.plt       0x70005320        0x0 load address 0x18005320
 .igot.plt      0x70005320        0x0 C:/devkitPro/devkitARM/bin/../lib/gcc/arm-none-eabi/13.1.0/armv6k/fpu/crtbegin.o

.bss            0x70005400     0x2c00 load address 0x18005320
                0x70005400                        . = ALIGN (0x20)
                0x70005400                        PROVIDE (__bss_start__ = ABSOLUTE (.))
 *(.dynbss)
 *(.bss)
 .bss           0x70005400       0x60 fatalExceptionHandlers.o
 *(.bss.*)
 .bss.completed.1
                0x70005460        0x1 C:/devkitPro/devkitARM/bin/../lib/gcc/arm-none-eabi/13.1.0/armv6k/fpu/crtbegin.o
 *fill*         0x70005461        0x3 
 .bss.object.0  0x70005464       0x18 C:/devkitPro/devkitARM/bin/../lib/gcc/arm-none-eabi/13.1.0/armv6k/fpu/crtbegin.o
 .bss.dbgParamContextId
                0x7000547c        0x4 debug.o
                0x7000547c                dbgParamContextId
 .bss.dbgParamWCR
                0x70005480        0x4 debug.o
                0x70005480                dbgParamWCR
 .bss.dbgParamDVA
                0x70005484        0x4 debug.o
                0x70005484                dbgParamDVA
 .bss.dbgParamWatchpointId
                0x70005488        0x4 debug.o
                0x70005488                dbgParamWatchpointId
 .bss.dbgParamsLock
                0x7000548c        0x8 debug.o
                0x7000548c                dbgParamsLock
 .bss.flagsKProcess
                0x70005494        0x4 globals.o
                0x70005494                flagsKProcess
 .bss.debugOffsetKProcess
                0x70005498        0x4 globals.o
                0x70005498                debugOffsetKProcess
 .bss.handleTableOffsetKProcess
                0x7000549c        0x4 globals.o
                0x7000549c                handleTableOffsetKProcess
 .bss.codeSetOffsetKProcess
                0x700054a0        0x4 globals.o
                0x700054a0                codeSetOffsetKProcess
 .bss.hwInfoOffsetKProcess
                0x700054a4        0x4 globals.o
                0x700054a4                hwInfoOffsetKProcess
 .bss.pidOffsetKProcess
                0x700054a8        0x4 globals.o
                0x700054a8                pidOffsetKProcess
 .bss.hasStartedRosalinaNetworkFuncsOnce
                0x700054ac        0x1 globals.o
                0x700054ac                hasStartedRosalinaNetworkFuncsOnce
 *fill*         0x700054ad        0x3 
 .bss.rosalinaState
                0x700054b0        0x4 globals.o
                0x700054b0                rosalinaState
 .bss.stolenSystemMemRegionSize
                0x700054b4        0x4 globals.o
                0x700054b4                stolenSystemMemRegionSize
 .bss.kextBasePa
                0x700054b8        0x4 globals.o
                0x700054b8                kextBasePa
 *fill*         0x700054bc        0x4 
 .bss.cfwInfo   0x700054c0       0x80 globals.o
                0x700054c0                cfwInfo
 .bss.coreBarrier
                0x70005540        0x4 globals.o
                0x70005540                coreBarrier
 .bss.mcuReboot
                0x70005544        0x4 globals.o
                0x70005544                mcuReboot
 .bss.initFPU   0x70005548        0x4 globals.o
                0x70005548                initFPU
 .bss.interruptManager
                0x7000554c        0x4 globals.o
                0x7000554c                interruptManager
 .bss.InterruptManager__MapInterrupt
                0x70005550        0x4 globals.o
                0x70005550                InterruptManager__MapInterrupt
 .bss.nbSection0Modules
                0x70005554        0x4 globals.o
                0x70005554                nbSection0Modules
 .bss.originalHandlers
                0x70005558       0x20 globals.o
                0x70005558                originalHandlers
 .bss.coreCtxs  0x70005578        0x4 globals.o
                0x70005578                coreCtxs
 .bss.fcramLayout
                0x7000557c       0x18 globals.o
                0x7000557c                fcramLayout
 .bss.kernelVersion
                0x70005594        0x4 globals.o
                0x70005594                kernelVersion
 .bss.configPage
                0x70005598        0x4 globals.o
                0x70005598                configPage
 .bss.isDevUnit
                0x7000559c        0x4 globals.o
                0x7000559c                isDevUnit
 .bss.kernelUsrCopyFuncsEnd
                0x700055a0        0x4 globals.o
                0x700055a0                kernelUsrCopyFuncsEnd
 .bss.kernelUsrCopyFuncsStart
                0x700055a4        0x4 globals.o
                0x700055a4                kernelUsrCopyFuncsStart
 .bss.L1MMUTableAddrs
                0x700055a8       0x10 globals.o
                0x700055a8                L1MMUTableAddrs
 .bss.TTBCR     0x700055b8        0x4 globals.o
                0x700055b8                TTBCR
 .bss.exceptionStackTop
                0x700055bc        0x4 globals.o
                0x700055bc                exceptionStackTop
 .bss.isN3DS    0x700055c0        0x1 globals.o
                0x700055c0                isN3DS
 *fill*         0x700055c1        0x3 
 .bss.SignalDebugEvent
                0x700055c4        0x4 globals.o
                0x700055c4                SignalDebugEvent
 .bss.officialPostProcessSvc
                0x700055c8        0x4 globals.o
                0x700055c8                officialPostProcessSvc
 .bss.kernelpanic
                0x700055cc        0x4 globals.o
                0x700055cc                kernelpanic
 .bss.svcFallbackHandler
                0x700055d0        0x4 globals.o
                0x700055d0                svcFallbackHandler
 .bss.kernelToUsrStrncpy
                0x700055d4        0x4 globals.o
                0x700055d4                kernelToUsrStrncpy
 .bss.kernelToUsrMemcpy32
                0x700055d8        0x4 globals.o
                0x700055d8                kernelToUsrMemcpy32
 .bss.kernelToUsrMemcpy8
                0x700055dc        0x4 globals.o
                0x700055dc                kernelToUsrMemcpy8
 .bss.usrToKernelStrncpy
                0x700055e0        0x4 globals.o
                0x700055e0                usrToKernelStrncpy
 .bss.usrToKernelMemcpy32
                0x700055e4        0x4 globals.o
                0x700055e4                usrToKernelMemcpy32
 .bss.usrToKernelMemcpy8
                0x700055e8        0x4 globals.o
                0x700055e8                usrToKernelMemcpy8
 .bss.invalidateInstructionCacheRange
                0x700055ec        0x4 globals.o
                0x700055ec                invalidateInstructionCacheRange
 .bss.flushDataCacheRange
                0x700055f0        0x4 globals.o
                0x700055f0                flushDataCacheRange
 .bss.KernelSetState
                0x700055f4        0x4 globals.o
                0x700055f4                KernelSetState
 .bss.UnmapProcessMemory
                0x700055f8        0x4 globals.o
                0x700055f8                UnmapProcessMemory
 .bss.DebugActiveProcess
                0x700055fc        0x4 globals.o
                0x700055fc                DebugActiveProcess
 .bss.GetProcessId
                0x70005600        0x4 globals.o
                0x70005600                GetProcessId
 .bss.OpenProcess
                0x70005604        0x4 globals.o
                0x70005604                OpenProcess
 .bss.SendSyncRequest
                0x70005608        0x4 globals.o
                0x70005608                SendSyncRequest
 .bss.ConnectToPort
                0x7000560c        0x4 globals.o
                0x7000560c                ConnectToPort
 .bss.GetThreadInfo
                0x70005610        0x4 globals.o
                0x70005610                GetThreadInfo
 .bss.GetProcessInfo
                0x70005614        0x4 globals.o
                0x70005614                GetProcessInfo
 .bss.GetSystemInfo
                0x70005618        0x4 globals.o
                0x70005618                GetSystemInfo
 .bss.GetHandleInfo
                0x7000561c        0x4 globals.o
                0x7000561c                GetHandleInfo
 .bss.CloseHandle
                0x70005620        0x4 globals.o
                0x70005620                CloseHandle
 .bss.SleepThread
                0x70005624        0x4 globals.o
                0x70005624                SleepThread
 .bss.CreateThread
                0x70005628        0x4 globals.o
                0x70005628                CreateThread
 .bss.ControlMemory
                0x7000562c        0x4 globals.o
                0x7000562c                ControlMemory
 .bss.KScheduler__AttemptSwitchingThreadContext
                0x70005630        0x4 globals.o
                0x70005630                KScheduler__AttemptSwitchingThreadContext
 .bss.KScheduler__AdjustThread
                0x70005634        0x4 globals.o
                0x70005634                KScheduler__AdjustThread
 .bss.KObjectMutex__ErrorOccured
                0x70005638        0x4 globals.o
                0x70005638                KObjectMutex__ErrorOccured
 .bss.KObjectMutex__WaitAndAcquire
                0x7000563c        0x4 globals.o
                0x7000563c                KObjectMutex__WaitAndAcquire
 .bss.KEvent__Clear
                0x70005640        0x4 globals.o
                0x70005640                KEvent__Clear
 .bss.KProcessHwInfo__UnmapProcessMemory
                0x70005644        0x4 globals.o
                0x70005644                KProcessHwInfo__UnmapProcessMemory
 .bss.KProcessHwInfo__MapProcessMemory
                0x70005648        0x4 globals.o
                0x70005648                KProcessHwInfo__MapProcessMemory
 .bss.KProcessHandleTable__CreateHandle
                0x7000564c        0x4 globals.o
                0x7000564c                KProcessHandleTable__CreateHandle
 .bss.WaitSynchronization1
                0x70005650        0x4 globals.o
                0x70005650                WaitSynchronization1
 .bss.KSynchronizationObject__Signal
                0x70005654        0x4 globals.o
                0x70005654                KSynchronizationObject__Signal
 .bss.KProcessHandleTable__ToKAutoObject
                0x70005658        0x4 globals.o
                0x70005658                KProcessHandleTable__ToKAutoObject
 .bss.KProcessHandleTable__ToKThread
                0x7000565c        0x4 globals.o
                0x7000565c                KProcessHandleTable__ToKThread
 .bss.KProcessHandleTable__ToKProcess
                0x70005660        0x4 globals.o
                0x70005660                KProcessHandleTable__ToKProcess
 .bss.KAutoObject__AddReference
                0x70005664        0x4 globals.o
                0x70005664                KAutoObject__AddReference
 .bss.KRecursiveLock__Unlock
                0x70005668        0x4 globals.o
                0x70005668                KRecursiveLock__Unlock
 .bss.KRecursiveLock__Lock
                0x7000566c        0x4 globals.o
                0x7000566c                KRecursiveLock__Lock
 .bss.synchronizationMutex
                0x70005670        0x4 globals.o
                0x70005670                synchronizationMutex
 .bss.threadList
                0x70005674        0x4 globals.o
                0x70005674                threadList
 .bss.criticalSectionLock
                0x70005678        0x4 globals.o
                0x70005678                criticalSectionLock
 .bss.KSession__dtor_orig
                0x7000567c        0x4 ipc.o
 .bss.customSessionVtable
                0x70005680       0x40 ipc.o
 .bss.processLangemuAttributes
                0x700056c0      0x400 ipc.o
                0x700056c0                processLangemuAttributes
 .bss.processLangemuLock
                0x70005ac0        0x8 ipc.o
                0x70005ac0                processLangemuLock
 .bss.sessionInfosLock
                0x70005ac8        0x8 ipc.o
 .bss.nbActiveSessions
                0x70005ad0        0x4 ipc.o
 .bss.sessionInfos
                0x70005ad4     0x1590 ipc.o
 *fill*         0x70007064      0x39c 
 .bss.g_L2Table
                0x70007400      0x400 main.o
 .bss.alteredSvcTable
                0x70007800      0x400 svc.o
                0x70007800                alteredSvcTable
 .bss.officialSVCs
                0x70007c00      0x1f8 svc.o
                0x70007c00                officialSVCs
 .bss.syscallDebugEventMaskLock.0
                0x70007df8        0x8 KernelSetState.o
 .bss.svcSignalingEnabled
                0x70007e00        0x1 KernelSetState.o
                0x70007e00                svcSignalingEnabled
 *fill*         0x70007e01        0x3 
 .bss.masks     0x70007e04       0x60 KernelSetState.o
 .bss.maskedPids
                0x70007e64        0xc KernelSetState.o
 .bss.nbEnabled
                0x70007e70        0x4 KernelSetState.o
 .bss.SGI0Handler
                0x70007e74        0x4 utils.o
                0x70007e74                SGI0Handler
 *(.gnu.linkonce.b*)
 *(COMMON)
                0x70008000                        . = ALIGN (0x1000)
 *fill*         0x70007e78      0x188 
                0x70008000                        PROVIDE (__bss_end__ = ABSOLUTE (.))
                0x70008000                        PROVIDE (__end__ = ABSOLUTE (.))

/DISCARD/
 *(.group .comment .note)

.stab
 *(.stab)

.stabstr
 *(.stabstr)

.stab.excl
 *(.stab.excl)

.stab.exclstr
 *(.stab.exclstr)

.stab.index
 *(.stab.index)

.stab.indexstr
 *(.stab.indexstr)

.debug
 *(.debug)

.line
 *(.line)

.debug_srcinfo
 *(.debug_srcinfo)

.debug_sfnames
 *(.debug_sfnames)

.debug_aranges  0x00000000      0x4b0
 *(.debug_aranges)
 .debug_aranges
                0x00000000       0x30 debug.o
 .debug_aranges
                0x00000030       0x30 fatalExceptionHandlersMain.o
 .debug_aranges
                0x00000060       0x18 globals.o
 .debug_aranges
                0x00000078       0x60 ipc.o
 .debug_aranges
                0x000000d8       0x38 main.o
 .debug_aranges
                0x00000110       0x40 svc.o
 .debug_aranges
                0x00000150       0x50 synchronization.o
 .debug_aranges
                0x000001a0       0x20 ConnectToPort.o
 .debug_aranges
                0x000001c0       0x20 ControlMemory.o
 .debug_aranges
                0x000001e0       0x20 ControlService.o
 .debug_aranges
                0x00000200       0x20 CopyHandle.o
 .debug_aranges
                0x00000220       0x20 CreateThread.o
 .debug_aranges
                0x00000240       0x20 GetHandleInfo.o
 .debug_aranges
                0x00000260       0x20 GetProcessInfo.o
 .debug_aranges
                0x00000280       0x20 GetSystemInfo.o
 .debug_aranges
                0x000002a0       0x20 GetThreadInfo.o
 .debug_aranges
                0x000002c0       0x30 KernelSetState.o
 .debug_aranges
                0x000002f0       0x20 MapProcessMemoryEx.o
 .debug_aranges
                0x00000310       0x20 SendSyncRequest.o
 .debug_aranges
                0x00000330       0x20 SetGpuProt.o
 .debug_aranges
                0x00000350       0x20 SetWifiEnabled.o
 .debug_aranges
                0x00000370       0x20 TranslateHandle.o
 .debug_aranges
                0x00000390       0x20 UnmapProcessMemoryEx.o
 .debug_aranges
                0x000003b0       0x20 fatalExceptionHandlers.o
 .debug_aranges
                0x000003d0       0x20 start.o
 .debug_aranges
                0x000003f0       0x20 svcHandler.o
 .debug_aranges
                0x00000410       0x20 utils.o
 .debug_aranges
                0x00000430       0x20 Backdoor.o
 .debug_aranges
                0x00000450       0x20 Break.o
 .debug_aranges
                0x00000470       0x20 CustomBackdoor.o
 .debug_aranges
                0x00000490       0x20 wrappers.o

.debug_pubnames
 *(.debug_pubnames)

.debug_info     0x00000000    0x2cf38
 *(.debug_info)
 .debug_info    0x00000000     0x1c2c debug.o
 .debug_info    0x00001c2c     0x1fd3 fatalExceptionHandlersMain.o
 .debug_info    0x00003bff     0x29f8 globals.o
 .debug_info    0x000065f7     0x25cc ipc.o
 .debug_info    0x00008bc3     0x33ce main.o
 .debug_info    0x0000bf91     0x20be svc.o
 .debug_info    0x0000e04f     0x20ec synchronization.o
 .debug_info    0x0001013b     0x1cc4 ConnectToPort.o
 .debug_info    0x00011dff     0x1b1d ControlMemory.o
 .debug_info    0x0001391c     0x225a ControlService.o
 .debug_info    0x00015b76     0x1caa CopyHandle.o
 .debug_info    0x00017820     0x1c64 CreateThread.o
 .debug_info    0x00019484     0x1d04 GetHandleInfo.o
 .debug_info    0x0001b188     0x1d1b GetProcessInfo.o
 .debug_info    0x0001cea3     0x1bfa GetSystemInfo.o
 .debug_info    0x0001ea9d     0x1abe GetThreadInfo.o
 .debug_info    0x0002055b     0x2087 KernelSetState.o
 .debug_info    0x000225e2     0x1b6a MapProcessMemoryEx.o
 .debug_info    0x0002414c     0x2487 SendSyncRequest.o
 .debug_info    0x000265d3     0x18fc SetGpuProt.o
 .debug_info    0x00027ecf     0x190c SetWifiEnabled.o
 .debug_info    0x000297db     0x1b78 TranslateHandle.o
 .debug_info    0x0002b353     0x1ac1 UnmapProcessMemoryEx.o
 .debug_info    0x0002ce14       0x25 fatalExceptionHandlers.o
 .debug_info    0x0002ce39       0x24 start.o
 .debug_info    0x0002ce5d       0x25 svcHandler.o
 .debug_info    0x0002ce82       0x25 utils.o
 .debug_info    0x0002cea7       0x24 Backdoor.o
 .debug_info    0x0002cecb       0x24 Break.o
 .debug_info    0x0002ceef       0x24 CustomBackdoor.o
 .debug_info    0x0002cf13       0x25 wrappers.o

.debug_abbrev   0x00000000     0x5f59
 *(.debug_abbrev)
 .debug_abbrev  0x00000000      0x40d debug.o
 .debug_abbrev  0x0000040d      0x47c fatalExceptionHandlersMain.o
 .debug_abbrev  0x00000889      0x333 globals.o
 .debug_abbrev  0x00000bbc      0x536 ipc.o
 .debug_abbrev  0x000010f2      0x58a main.o
 .debug_abbrev  0x0000167c      0x493 svc.o
 .debug_abbrev  0x00001b0f      0x50d synchronization.o
 .debug_abbrev  0x0000201c      0x3c5 ConnectToPort.o
 .debug_abbrev  0x000023e1      0x3cb ControlMemory.o
 .debug_abbrev  0x000027ac      0x4c8 ControlService.o
 .debug_abbrev  0x00002c74      0x425 CopyHandle.o
 .debug_abbrev  0x00003099      0x391 CreateThread.o
 .debug_abbrev  0x0000342a      0x454 GetHandleInfo.o
 .debug_abbrev  0x0000387e      0x437 GetProcessInfo.o
 .debug_abbrev  0x00003cb5      0x357 GetSystemInfo.o
 .debug_abbrev  0x0000400c      0x3a0 GetThreadInfo.o
 .debug_abbrev  0x000043ac      0x51d KernelSetState.o
 .debug_abbrev  0x000048c9      0x3c2 MapProcessMemoryEx.o
 .debug_abbrev  0x00004c8b      0x4eb SendSyncRequest.o
 .debug_abbrev  0x00005176      0x2c7 SetGpuProt.o
 .debug_abbrev  0x0000543d      0x2c7 SetWifiEnabled.o
 .debug_abbrev  0x00005704      0x400 TranslateHandle.o
 .debug_abbrev  0x00005b04      0x3b5 UnmapProcessMemoryEx.o
 .debug_abbrev  0x00005eb9       0x14 fatalExceptionHandlers.o
 .debug_abbrev  0x00005ecd       0x14 start.o
 .debug_abbrev  0x00005ee1       0x14 svcHandler.o
 .debug_abbrev  0x00005ef5       0x14 utils.o
 .debug_abbrev  0x00005f09       0x14 Backdoor.o
 .debug_abbrev  0x00005f1d       0x14 Break.o
 .debug_abbrev  0x00005f31       0x14 CustomBackdoor.o
 .debug_abbrev  0x00005f45       0x14 wrappers.o

.debug_line     0x00000000     0x6f67
 *(.debug_line)
 .debug_line    0x00000000      0x344 debug.o
 .debug_line    0x00000344      0x56b fatalExceptionHandlersMain.o
 .debug_line    0x000008af      0x15c globals.o
 .debug_line    0x00000a0b      0x82c ipc.o
 .debug_line    0x00001237     0x16e0 main.o
 .debug_line    0x00002917      0x598 svc.o
 .debug_line    0x00002eaf      0x7b6 synchronization.o
 .debug_line    0x00003665      0x24e ConnectToPort.o
 .debug_line    0x000038b3      0x1d3 ControlMemory.o
 .debug_line    0x00003a86      0x505 ControlService.o
 .debug_line    0x00003f8b      0x316 CopyHandle.o
 .debug_line    0x000042a1      0x209 CreateThread.o
 .debug_line    0x000044aa      0x36f GetHandleInfo.o
 .debug_line    0x00004819      0x4b9 GetProcessInfo.o
 .debug_line    0x00004cd2      0x431 GetSystemInfo.o
 .debug_line    0x00005103      0x220 GetThreadInfo.o
 .debug_line    0x00005323      0x6ff KernelSetState.o
 .debug_line    0x00005a22      0x268 MapProcessMemoryEx.o
 .debug_line    0x00005c8a      0x729 SendSyncRequest.o
 .debug_line    0x000063b3      0x16f SetGpuProt.o
 .debug_line    0x00006522      0x189 SetWifiEnabled.o
 .debug_line    0x000066ab      0x2fa TranslateHandle.o
 .debug_line    0x000069a5      0x1f4 UnmapProcessMemoryEx.o
 .debug_line    0x00006b99       0xe8 fatalExceptionHandlers.o
 .debug_line    0x00006c81       0x63 start.o
 .debug_line    0x00006ce4       0x9a svcHandler.o
 .debug_line    0x00006d7e       0x8b utils.o
 .debug_line    0x00006e09       0x52 Backdoor.o
 .debug_line    0x00006e5b       0x4c Break.o
 .debug_line    0x00006ea7       0x4f CustomBackdoor.o
 .debug_line    0x00006ef6       0x71 wrappers.o

.debug_frame    0x00000000      0x834
 *(.debug_frame)
 .debug_frame   0x00000000       0x64 debug.o
 .debug_frame   0x00000064       0x7c fatalExceptionHandlersMain.o
 .debug_frame   0x000000e0      0x170 ipc.o
 .debug_frame   0x00000250       0xa8 main.o
 .debug_frame   0x000002f8       0x94 svc.o
 .debug_frame   0x0000038c       0xf0 synchronization.o
 .debug_frame   0x0000047c       0x3c ConnectToPort.o
 .debug_frame   0x000004b8       0x30 ControlMemory.o
 .debug_frame   0x000004e8       0x40 ControlService.o
 .debug_frame   0x00000528       0x3c CopyHandle.o
 .debug_frame   0x00000564       0x38 CreateThread.o
 .debug_frame   0x0000059c       0x44 GetHandleInfo.o
 .debug_frame   0x000005e0       0x40 GetProcessInfo.o
 .debug_frame   0x00000620       0x30 GetSystemInfo.o
 .debug_frame   0x00000650       0x2c GetThreadInfo.o
 .debug_frame   0x0000067c       0x90 KernelSetState.o
 .debug_frame   0x0000070c       0x3c MapProcessMemoryEx.o
 .debug_frame   0x00000748       0x48 SendSyncRequest.o
 .debug_frame   0x00000790       0x20 SetGpuProt.o
 .debug_frame   0x000007b0       0x20 SetWifiEnabled.o
 .debug_frame   0x000007d0       0x38 TranslateHandle.o
 .debug_frame   0x00000808       0x2c UnmapProcessMemoryEx.o

.debug_str      0x00000000     0x35bd
 *(.debug_str)
 .debug_str     0x00000000     0x1439 debug.o
                               0x151d (size before relaxing)
 .debug_str     0x00001439      0x483 fatalExceptionHandlersMain.o
                               0x1843 (size before relaxing)
 .debug_str     0x000018bc      0x802 globals.o
                               0x1dc5 (size before relaxing)
 .debug_str     0x000020be      0x31e ipc.o
                               0x19b9 (size before relaxing)
 .debug_str     0x000023dc      0x1c2 main.o
                               0x1f7f (size before relaxing)
 .debug_str     0x0000259e      0x364 svc.o
                               0x1909 (size before relaxing)
 .debug_str     0x00002902      0x1ba synchronization.o
                               0x170e (size before relaxing)
 .debug_str     0x00002abc       0x93 ConnectToPort.o
                               0x15c1 (size before relaxing)
 .debug_str     0x00002b4f       0x82 ControlMemory.o
                               0x156a (size before relaxing)
 .debug_str     0x00002bd1       0xc0 ControlService.o
                               0x16e6 (size before relaxing)
 .debug_str     0x00002c91       0xa8 CopyHandle.o
                               0x1555 (size before relaxing)
 .debug_str     0x00002d39       0x9b CreateThread.o
                               0x1698 (size before relaxing)
 .debug_str     0x00002dd4       0x80 GetHandleInfo.o
                               0x1530 (size before relaxing)
 .debug_str     0x00002e54       0x79 GetProcessInfo.o
                               0x1540 (size before relaxing)
 .debug_str     0x00002ecd       0x74 GetSystemInfo.o
                               0x160b (size before relaxing)
 .debug_str     0x00002f41       0x76 GetThreadInfo.o
                               0x14cc (size before relaxing)
 .debug_str     0x00002fb7       0xe5 KernelSetState.o
                               0x170a (size before relaxing)
 .debug_str     0x0000309c       0x6a MapProcessMemoryEx.o
                               0x1503 (size before relaxing)
 .debug_str     0x00003106       0x90 SendSyncRequest.o
                               0x16c9 (size before relaxing)
 .debug_str     0x00003196       0x59 SetGpuProt.o
                               0x1413 (size before relaxing)
 .debug_str     0x000031ef       0x58 SetWifiEnabled.o
                               0x141d (size before relaxing)
 .debug_str     0x00003247       0x7f TranslateHandle.o
                               0x1512 (size before relaxing)
 .debug_str     0x000032c6       0x5e UnmapProcessMemoryEx.o
                               0x1511 (size before relaxing)
 .debug_str     0x00003324       0x68 fatalExceptionHandlers.o
                                 0xaa (size before relaxing)
 .debug_str     0x0000338c       0x4b start.o
                                 0x99 (size before relaxing)
 .debug_str     0x000033d7       0x50 svcHandler.o
                                 0x9e (size before relaxing)
 .debug_str     0x00003427       0x4b utils.o
                                 0x99 (size before relaxing)
 .debug_str     0x00003472       0x52 Backdoor.o
                                 0xa0 (size before relaxing)
 .debug_str     0x000034c4       0x4f Break.o
                                 0x9d (size before relaxing)
 .debug_str     0x00003513       0x58 CustomBackdoor.o
                                 0xa6 (size before relaxing)
 .debug_str     0x0000356b       0x52 wrappers.o
                                 0xa0 (size before relaxing)

.debug_loc
 *(.debug_loc)

.debug_macinfo
 *(.debug_macinfo)
LOAD C:/devkitPro/devkitARM/bin/../lib/gcc/arm-none-eabi/13.1.0/armv6k/fpu/crti.o
LOAD C:/devkitPro/devkitARM/bin/../lib/gcc/arm-none-eabi/13.1.0/armv6k/fpu/crtbegin.o
LOAD debug.o
LOAD fatalExceptionHandlersMain.o
LOAD globals.o
LOAD ipc.o
LOAD main.o
LOAD svc.o
LOAD synchronization.o
LOAD ConnectToPort.o
LOAD ControlMemory.o
LOAD ControlService.o
LOAD CopyHandle.o
LOAD CreateThread.o
LOAD GetHandleInfo.o
LOAD GetProcessInfo.o
LOAD GetSystemInfo.o
LOAD GetThreadInfo.o
LOAD KernelSetState.o
LOAD MapProcessMemoryEx.o
LOAD SendSyncRequest.o
LOAD SetGpuProt.o
LOAD SetWifiEnabled.o
LOAD TranslateHandle.o
LOAD UnmapProcessMemoryEx.o
LOAD fatalExceptionHandlers.o
LOAD start.o
LOAD svcHandler.o
LOAD utils.o
LOAD Backdoor.o
LOAD Break.o
LOAD CustomBackdoor.o
LOAD wrappers.o
START GROUP
LOAD C:/devkitPro/devkitARM/bin/../lib/gcc/arm-none-eabi/13.1.0/armv6k/fpu\libgcc.a
LOAD C:/devkitPro/devkitARM/bin/../lib/gcc/arm-none-eabi/13.1.0/../../../../arm-none-eabi/lib/armv6k/fpu\libg.a
LOAD C:/devkitPro/devkitARM/bin/../lib/gcc/arm-none-eabi/13.1.0/../../../../arm-none-eabi/lib/armv6k/fpu\libc.a
LOAD C:/devkitPro/devkitARM/bin/../lib/gcc/arm-none-eabi/13.1.0/../../../../arm-none-eabi/lib/armv6k/fpu\libsysbase.a
END GROUP
LOAD C:/devkitPro/devkitARM/bin/../lib/gcc/arm-none-eabi/13.1.0/armv6k/fpu/crtend.o
LOAD C:/devkitPro/devkitARM/bin/../lib/gcc/arm-none-eabi/13.1.0/armv6k/fpu/crtn.o
OUTPUT(C:/Users/gem/Downloads/3dspatch/800px/Luma3DS/k11_extension/k11_extension.elf elf32-littlearm)
LOAD linker stubs

.ARM.attributes
                0x00000000       0x2c
 .ARM.attributes
                0x00000000       0x1c C:/devkitPro/devkitARM/bin/../lib/gcc/arm-none-eabi/13.1.0/armv6k/fpu/crti.o
 .ARM.attributes
                0x0000001c       0x30 C:/devkitPro/devkitARM/bin/../lib/gcc/arm-none-eabi/13.1.0/armv6k/fpu/crtbegin.o
 .ARM.attributes
                0x0000004c       0x30 debug.o
 .ARM.attributes
                0x0000007c       0x30 fatalExceptionHandlersMain.o
 .ARM.attributes
                0x000000ac       0x30 globals.o
 .ARM.attributes
                0x000000dc       0x30 ipc.o
 .ARM.attributes
                0x0000010c       0x30 main.o
 .ARM.attributes
                0x0000013c       0x30 svc.o
 .ARM.attributes
                0x0000016c       0x30 synchronization.o
 .ARM.attributes
                0x0000019c       0x30 ConnectToPort.o
 .ARM.attributes
                0x000001cc       0x30 ControlMemory.o
 .ARM.attributes
                0x000001fc       0x30 ControlService.o
 .ARM.attributes
                0x0000022c       0x30 CopyHandle.o
 .ARM.attributes
                0x0000025c       0x30 CreateThread.o
 .ARM.attributes
                0x0000028c       0x30 GetHandleInfo.o
 .ARM.attributes
                0x000002bc       0x30 GetProcessInfo.o
 .ARM.attributes
                0x000002ec       0x30 GetSystemInfo.o
 .ARM.attributes
                0x0000031c       0x30 GetThreadInfo.o
 .ARM.attributes
                0x0000034c       0x30 KernelSetState.o
 .ARM.attributes
                0x0000037c       0x30 MapProcessMemoryEx.o
 .ARM.attributes
                0x000003ac       0x30 SendSyncRequest.o
 .ARM.attributes
                0x000003dc       0x30 SetGpuProt.o
 .ARM.attributes
                0x0000040c       0x30 SetWifiEnabled.o
 .ARM.attributes
                0x0000043c       0x30 TranslateHandle.o
 .ARM.attributes
                0x0000046c       0x30 UnmapProcessMemoryEx.o
 .ARM.attributes
                0x0000049c       0x1c fatalExceptionHandlers.o
 .ARM.attributes
                0x000004b8       0x1a start.o
 .ARM.attributes
                0x000004d2       0x1a svcHandler.o
 .ARM.attributes
                0x000004ec       0x1a utils.o
 .ARM.attributes
                0x00000506       0x1a Backdoor.o
 .ARM.attributes
                0x00000520       0x1a Break.o
 .ARM.attributes
                0x0000053a       0x1a CustomBackdoor.o
 .ARM.attributes
                0x00000554       0x1a wrappers.o
 .ARM.attributes
                0x0000056e       0x30 C:/devkitPro/devkitARM/bin/../lib/gcc/arm-none-eabi/13.1.0/../../../../arm-none-eabi/lib/armv6k/fpu\libg.a(libc_a-memmove.o)
 .ARM.attributes
                0x0000059e       0x30 C:/devkitPro/devkitARM/bin/../lib/gcc/arm-none-eabi/13.1.0/../../../../arm-none-eabi/lib/armv6k/fpu\libg.a(libc_a-memset.o)
 .ARM.attributes
                0x000005ce       0x30 C:/devkitPro/devkitARM/bin/../lib/gcc/arm-none-eabi/13.1.0/../../../../arm-none-eabi/lib/armv6k/fpu\libg.a(libc_a-strlen.o)
 .ARM.attributes
                0x000005fe       0x30 C:/devkitPro/devkitARM/bin/../lib/gcc/arm-none-eabi/13.1.0/../../../../arm-none-eabi/lib/armv6k/fpu\libg.a(libc_a-strncmp.o)
 .ARM.attributes
                0x0000062e       0x30 C:/devkitPro/devkitARM/bin/../lib/gcc/arm-none-eabi/13.1.0/../../../../arm-none-eabi/lib/armv6k/fpu\libg.a(libc_a-strncpy.o)
 .ARM.attributes
                0x0000065e       0x1a C:/devkitPro/devkitARM/bin/../lib/gcc/arm-none-eabi/13.1.0/../../../../arm-none-eabi/lib/armv6k/fpu\libg.a(libc_a-strcmp.o)
 .ARM.attributes
                0x00000678       0x30 C:/devkitPro/devkitARM/bin/../lib/gcc/arm-none-eabi/13.1.0/../../../../arm-none-eabi/lib/armv6k/fpu\libg.a(libc_a-memcpy-stub.o)
 .ARM.attributes
                0x000006a8       0x30 C:/devkitPro/devkitARM/bin/../lib/gcc/arm-none-eabi/13.1.0/../../../../arm-none-eabi/lib/armv6k/fpu\libg.a(libc_a-init.o)
 .ARM.attributes
                0x000006d8       0x1c C:/devkitPro/devkitARM/bin/../lib/gcc/arm-none-eabi/13.1.0/armv6k/fpu/crtn.o

.debug_loclists
                0x00000000     0x402b
 .debug_loclists
                0x00000000      0x28b debug.o
 .debug_loclists
                0x0000028b      0x694 fatalExceptionHandlersMain.o
 .debug_loclists
                0x0000091f      0x3aa ipc.o
 .debug_loclists
                0x00000cc9      0xfa1 main.o
 .debug_loclists
                0x00001c6a      0x13f svc.o
 .debug_loclists
                0x00001da9      0x3dd synchronization.o
 .debug_loclists
                0x00002186       0xf8 ConnectToPort.o
 .debug_loclists
                0x0000227e       0xb3 ControlMemory.o
 .debug_loclists
                0x00002331      0x375 ControlService.o
 .debug_loclists
                0x000026a6      0x22d CopyHandle.o
 .debug_loclists
                0x000028d3       0xf9 CreateThread.o
 .debug_loclists
                0x000029cc      0x1ca GetHandleInfo.o
 .debug_loclists
                0x00002b96      0x21b GetProcessInfo.o
 .debug_loclists
                0x00002db1      0x3f4 GetSystemInfo.o
 .debug_loclists
                0x000031a5      0x110 GetThreadInfo.o
 .debug_loclists
                0x000032b5      0x5c4 KernelSetState.o
 .debug_loclists
                0x00003879      0x10f MapProcessMemoryEx.o
 .debug_loclists
                0x00003988      0x46f SendSyncRequest.o
 .debug_loclists
                0x00003df7       0x29 SetGpuProt.o
 .debug_loclists
                0x00003e20       0x29 SetWifiEnabled.o
 .debug_loclists
                0x00003e49       0xfb TranslateHandle.o
 .debug_loclists
                0x00003f44       0xe7 UnmapProcessMemoryEx.o

.debug_rnglists
                0x00000000      0xa9d
 .debug_rnglists
                0x00000000       0x44 debug.o
 .debug_rnglists
                0x00000044       0x40 fatalExceptionHandlersMain.o
 .debug_rnglists
                0x00000084       0x93 ipc.o
 .debug_rnglists
                0x00000117      0x29d main.o
 .debug_rnglists
                0x000003b4       0x50 svc.o
 .debug_rnglists
                0x00000404      0x143 synchronization.o
 .debug_rnglists
                0x00000547       0x36 ConnectToPort.o
 .debug_rnglists
                0x0000057d       0x22 ControlMemory.o
 .debug_rnglists
                0x0000059f       0xdf ControlService.o
 .debug_rnglists
                0x0000067e       0x50 CopyHandle.o
 .debug_rnglists
                0x000006ce       0x20 CreateThread.o
 .debug_rnglists
                0x000006ee       0x8c GetHandleInfo.o
 .debug_rnglists
                0x0000077a       0x94 GetProcessInfo.o
 .debug_rnglists
                0x0000080e       0x14 GetSystemInfo.o
 .debug_rnglists
                0x00000822       0x32 GetThreadInfo.o
 .debug_rnglists
                0x00000854       0x64 KernelSetState.o
 .debug_rnglists
                0x000008b8       0x41 MapProcessMemoryEx.o
 .debug_rnglists
                0x000008f9      0x11d SendSyncRequest.o
 .debug_rnglists
                0x00000a16       0x13 SetGpuProt.o
 .debug_rnglists
                0x00000a29       0x13 SetWifiEnabled.o
 .debug_rnglists
                0x00000a3c       0x3f TranslateHandle.o
 .debug_rnglists
                0x00000a7b       0x22 UnmapProcessMemoryEx.o

.debug_line_str
                0x00000000      0x126
 .debug_line_str
                0x00000000       0x9e fatalExceptionHandlers.o
 .debug_line_str
                0x0000009e        0x8 start.o
                                 0x8d (size before relaxing)
 .debug_line_str
                0x000000a6        0xd svcHandler.o
                                 0x92 (size before relaxing)
 .debug_line_str
                0x000000b3        0x8 utils.o
                                 0x8d (size before relaxing)
 .debug_line_str
                0x000000bb       0x47 Backdoor.o
                                 0x94 (size before relaxing)
 .debug_line_str
                0x00000102        0x8 Break.o
                                 0x91 (size before relaxing)
 .debug_line_str
                0x0000010a       0x11 CustomBackdoor.o
                                 0x9a (size before relaxing)
 .debug_line_str
                0x0000011b        0xb wrappers.o
                                 0x94 (size before relaxing)
